target datalayout = "e-m:e-p270:32:32-p271:32:32-p272:64:64-i64:64-i128:128-f80:128-n8:16:32:64-S128"
target triple = "x86_64-pc-linux-gnu"

; Function Attrs: mustprogress nounwind uwtable
define internal void @_ZN2cv12cpu_baseline12_GLOBAL__N_118vlineSmooth5N14641IhNS_12_GLOBAL__N_113ufixedpoint16EEEvPKPKT0_S7_iPT_i(ptr noundef %0, ptr noundef %1, i32 noundef %2, ptr noundef %3, i32 noundef %4) #7 {
  %6 = alloca ptr, align 8
  %7 = alloca ptr, align 8
  %8 = alloca i32, align 4
  %9 = alloca ptr, align 8
  %10 = alloca i32, align 4
  %11 = alloca i32, align 4
  store ptr %0, ptr %6, align 8, !tbaa !311
  store ptr %1, ptr %7, align 8, !tbaa !204
  store i32 %2, ptr %8, align 4, !tbaa !10
  store ptr %3, ptr %9, align 8, !tbaa !82
  store i32 %4, ptr %10, align 4, !tbaa !10
  call void @llvm.lifetime.start.p0(i64 4, ptr %11) #3
  store i32 0, ptr %11, align 4, !tbaa !10
  br label %12

12:                                               ; preds = %70, %5
  %13 = load i32, ptr %11, align 4, !tbaa !10
  %14 = load i32, ptr %10, align 4, !tbaa !10
  %15 = icmp slt i32 %13, %14
  br i1 %15, label %16, label %73

16:                                               ; preds = %12
  %17 = load ptr, ptr %6, align 8, !tbaa !311
  %18 = getelementptr inbounds ptr, ptr %17, i64 2
  %19 = load ptr, ptr %18, align 8, !tbaa !204
  %20 = load i32, ptr %11, align 4, !tbaa !10
  %21 = sext i32 %20 to i64
  %22 = getelementptr inbounds i16, ptr %19, i64 %21
  %23 = load i16, ptr %22, align 2, !tbaa !236
  %24 = zext i16 %23 to i32
  %25 = mul i32 %24, 6
  %26 = load ptr, ptr %6, align 8, !tbaa !311
  %27 = getelementptr inbounds ptr, ptr %26, i64 1
  %28 = load ptr, ptr %27, align 8, !tbaa !204
  %29 = load i32, ptr %11, align 4, !tbaa !10
  %30 = sext i32 %29 to i64
  %31 = getelementptr inbounds i16, ptr %28, i64 %30
  %32 = load i16, ptr %31, align 2, !tbaa !236
  %33 = zext i16 %32 to i32
  %34 = load ptr, ptr %6, align 8, !tbaa !311
  %35 = getelementptr inbounds ptr, ptr %34, i64 3
  %36 = load ptr, ptr %35, align 8, !tbaa !204
  %37 = load i32, ptr %11, align 4, !tbaa !10
  %38 = sext i32 %37 to i64
  %39 = getelementptr inbounds i16, ptr %36, i64 %38
  %40 = load i16, ptr %39, align 2, !tbaa !236
  %41 = zext i16 %40 to i32
  %42 = add i32 %33, %41
  %43 = shl i32 %42, 2
  %44 = add i32 %25, %43
  %45 = load ptr, ptr %6, align 8, !tbaa !311
  %46 = getelementptr inbounds ptr, ptr %45, i64 0
  %47 = load ptr, ptr %46, align 8, !tbaa !204
  %48 = load i32, ptr %11, align 4, !tbaa !10
  %49 = sext i32 %48 to i64
  %50 = getelementptr inbounds i16, ptr %47, i64 %49
  %51 = load i16, ptr %50, align 2, !tbaa !236
  %52 = zext i16 %51 to i32
  %53 = add i32 %44, %52
  %54 = load ptr, ptr %6, align 8, !tbaa !311
  %55 = getelementptr inbounds ptr, ptr %54, i64 4
  %56 = load ptr, ptr %55, align 8, !tbaa !204
  %57 = load i32, ptr %11, align 4, !tbaa !10
  %58 = sext i32 %57 to i64
  %59 = getelementptr inbounds i16, ptr %56, i64 %58
  %60 = load i16, ptr %59, align 2, !tbaa !236
  %61 = zext i16 %60 to i32
  %62 = add i32 %53, %61
  %63 = add i32 %62, 2048
  %64 = lshr i32 %63, 12
  %65 = trunc i32 %64 to i8
  %66 = load ptr, ptr %9, align 8, !tbaa !82
  %67 = load i32, ptr %11, align 4, !tbaa !10
  %68 = sext i32 %67 to i64
  %69 = getelementptr inbounds i8, ptr %66, i64 %68
  store i8 %65, ptr %69, align 1, !tbaa !42
  br label %70

70:                                               ; preds = %16
  %71 = load i32, ptr %11, align 4, !tbaa !10
  %72 = add nsw i32 %71, 1
  store i32 %72, ptr %11, align 4, !tbaa !10
  br label %12, !llvm.loop !317

73:                                               ; preds = %12
  call void @llvm.lifetime.end.p0(i64 4, ptr %11) #3
  ret void
}