; Function Attrs: mustprogress nofree norecurse nosync nounwind memory(read, argmem: readwrite, inaccessiblemem: none) uwtable
define internal void @_ZN2cv12cpu_baseline12_GLOBAL__N_118vlineSmooth5N14641IhNS_12_GLOBAL__N_113ufixedpoint16EEEvPKPKT0_S7_iPT_i(ptr noundef readonly captures(none) %0, ptr readnone captures(none) %1, i32 %2, ptr noundef writeonly captures(none) %3, i32 noundef %4) #17 {
  %6 = icmp sgt i32 %4, 0
  br i1 %6, label %.lr.ph, label %._crit_edge

.lr.ph:                                           ; preds = %5
  %7 = getelementptr inbounds nuw i8, ptr %0, i64 16
  %8 = getelementptr inbounds nuw i8, ptr %0, i64 8
  %9 = getelementptr inbounds nuw i8, ptr %0, i64 24
  %10 = getelementptr inbounds nuw i8, ptr %0, i64 32
  %wide.trip.count = zext nneg i32 %4 to i64
  br label %11

11:                                               ; preds = %.lr.ph, %11
  %indvars.iv = phi i64 [ 0, %.lr.ph ], [ %indvars.iv.next, %11 ]
  %12 = load ptr, ptr %7, align 8, !tbaa !901
  %13 = getelementptr inbounds nuw i16, ptr %12, i64 %indvars.iv
  %14 = load i16, ptr %13, align 2, !tbaa !400
  %15 = zext i16 %14 to i32
  %16 = mul nuw nsw i32 %15, 6
  %17 = load ptr, ptr %8, align 8, !tbaa !901
  %18 = getelementptr inbounds nuw i16, ptr %17, i64 %indvars.iv
  %19 = load i16, ptr %18, align 2, !tbaa !400
  %20 = zext i16 %19 to i32
  %21 = load ptr, ptr %9, align 8, !tbaa !901
  %22 = getelementptr inbounds nuw i16, ptr %21, i64 %indvars.iv
  %23 = load i16, ptr %22, align 2, !tbaa !400
  %24 = zext i16 %23 to i32
  %25 = add nuw nsw i32 %24, %20
  %26 = shl nuw nsw i32 %25, 2
  %27 = load ptr, ptr %0, align 8, !tbaa !901
  %28 = getelementptr inbounds nuw i16, ptr %27, i64 %indvars.iv
  %29 = load i16, ptr %28, align 2, !tbaa !400
  %30 = zext i16 %29 to i32
  %31 = load ptr, ptr %10, align 8, !tbaa !901
  %32 = getelementptr inbounds nuw i16, ptr %31, i64 %indvars.iv
  %33 = load i16, ptr %32, align 2, !tbaa !400
  %34 = zext i16 %33 to i32
  %35 = add nuw nsw i32 %16, 2048
  %36 = add nuw nsw i32 %35, %26
  %37 = add nuw nsw i32 %36, %30
  %38 = add nuw nsw i32 %37, %34
  %39 = lshr i32 %38, 12
  %40 = trunc i32 %39 to i8
  %41 = getelementptr inbounds nuw i8, ptr %3, i64 %indvars.iv
  store i8 %40, ptr %41, align 1, !tbaa !282
  %indvars.iv.next = add nuw nsw i64 %indvars.iv, 1
  %exitcond.not = icmp eq i64 %indvars.iv.next, %wide.trip.count
  br i1 %exitcond.not, label %._crit_edge, label %11, !llvm.loop !918

._crit_edge:                                      ; preds = %11, %5
  ret void
}